; ModuleID = '7/646.c'
source_filename = "7/646.c"
target datalayout = "e-m:e-p270:32:32-p271:32:32-p272:64:64-i64:64-f80:128-n8:16:32:64-S128"
target triple = "x86_64-pc-linux-gnu"

@.str = private unnamed_addr constant [4 x i8] c"%s\0A\00", align 1

; Function Attrs: noinline nounwind uwtable
define dso_local i32 @main() #0 {
  %1 = alloca i32, align 4
  %2 = alloca [101 x i8], align 16
  %3 = alloca [101 x i8], align 16
  %4 = alloca [101 x i8], align 16
  %5 = alloca [101 x i8], align 16
  %6 = alloca i32, align 4
  %7 = alloca i32, align 4
  %8 = alloca i32, align 4
  %9 = alloca i32, align 4
  %10 = alloca i32, align 4
  %11 = alloca i32, align 4
  %12 = alloca i32, align 4
  %13 = alloca i32, align 4
  %14 = alloca i32, align 4
  %15 = alloca i32, align 4
  store i32 0, i32* %1, align 4
  store i32 0, i32* %15, align 4
  %16 = getelementptr inbounds [101 x i8], [101 x i8]* %2, i64 0, i64 0
  %17 = call i32 (i8*, ...) bitcast (i32 (...)* @gets to i32 (i8*, ...)*)(i8* %16)
  %18 = getelementptr inbounds [101 x i8], [101 x i8]* %3, i64 0, i64 0
  %19 = call i32 (i8*, ...) bitcast (i32 (...)* @gets to i32 (i8*, ...)*)(i8* %18)
  %20 = getelementptr inbounds [101 x i8], [101 x i8]* %4, i64 0, i64 0
  %21 = call i32 (i8*, ...) bitcast (i32 (...)* @gets to i32 (i8*, ...)*)(i8* %20)
  %22 = getelementptr inbounds [101 x i8], [101 x i8]* %2, i64 0, i64 0
  %23 = call i64 @strlen(i8* %22) #3
  %24 = trunc i64 %23 to i32
  store i32 %24, i32* %11, align 4
  %25 = getelementptr inbounds [101 x i8], [101 x i8]* %3, i64 0, i64 0
  %26 = call i64 @strlen(i8* %25) #3
  %27 = trunc i64 %26 to i32
  store i32 %27, i32* %12, align 4
  %28 = getelementptr inbounds [101 x i8], [101 x i8]* %4, i64 0, i64 0
  %29 = call i64 @strlen(i8* %28) #3
  %30 = trunc i64 %29 to i32
  store i32 %30, i32* %13, align 4
  store i32 0, i32* %7, align 4
  store i32 0, i32* %10, align 4
  br label %31

31:                                               ; preds = %114, %0
  %32 = load i32, i32* %7, align 4
  %33 = load i32, i32* %11, align 4
  %34 = icmp slt i32 %32, %33
  br i1 %34, label %35, label %119

35:                                               ; preds = %31
  store i32 0, i32* %14, align 4
  store i32 0, i32* %8, align 4
  br label %36

36:                                               ; preds = %73, %35
  %37 = load i32, i32* %8, align 4
  %38 = load i32, i32* %12, align 4
  %39 = icmp slt i32 %37, %38
  br i1 %39, label %40, label %53

40:                                               ; preds = %36
  %41 = load i32, i32* %15, align 4
  %42 = icmp eq i32 %41, 0
  br i1 %42, label %43, label %53

43:                                               ; preds = %40
  %44 = load i32, i32* %7, align 4
  %45 = load i32, i32* %12, align 4
  %46 = add nsw i32 %44, %45
  %47 = sub nsw i32 %46, 1
  %48 = sext i32 %47 to i64
  %49 = getelementptr inbounds [101 x i8], [101 x i8]* %2, i64 0, i64 %48
  %50 = load i8, i8* %49, align 1
  %51 = sext i8 %50 to i32
  %52 = icmp ne i32 %51, 0
  br label %53

53:                                               ; preds = %43, %40, %36
  %54 = phi i1 [ false, %40 ], [ false, %36 ], [ %52, %43 ]
  br i1 %54, label %55, label %76

55:                                               ; preds = %53
  %56 = load i32, i32* %7, align 4
  %57 = load i32, i32* %8, align 4
  %58 = add nsw i32 %56, %57
  %59 = sext i32 %58 to i64
  %60 = getelementptr inbounds [101 x i8], [101 x i8]* %2, i64 0, i64 %59
  %61 = load i8, i8* %60, align 1
  %62 = sext i8 %61 to i32
  %63 = load i32, i32* %8, align 4
  %64 = sext i32 %63 to i64
  %65 = getelementptr inbounds [101 x i8], [101 x i8]* %3, i64 0, i64 %64
  %66 = load i8, i8* %65, align 1
  %67 = sext i8 %66 to i32
  %68 = icmp eq i32 %62, %67
  br i1 %68, label %69, label %72

69:                                               ; preds = %55
  %70 = load i32, i32* %14, align 4
  %71 = add nsw i32 %70, 1
  store i32 %71, i32* %14, align 4
  br label %72

72:                                               ; preds = %69, %55
  br label %73

73:                                               ; preds = %72
  %74 = load i32, i32* %8, align 4
  %75 = add nsw i32 %74, 1
  store i32 %75, i32* %8, align 4
  br label %36

76:                                               ; preds = %53
  %77 = load i32, i32* %14, align 4
  %78 = load i32, i32* %12, align 4
  %79 = icmp eq i32 %77, %78
  br i1 %79, label %80, label %105

80:                                               ; preds = %76
  store i32 1, i32* %15, align 4
  store i32 0, i32* %9, align 4
  br label %81

81:                                               ; preds = %93, %80
  %82 = load i32, i32* %9, align 4
  %83 = load i32, i32* %13, align 4
  %84 = icmp slt i32 %82, %83
  br i1 %84, label %85, label %98

85:                                               ; preds = %81
  %86 = load i32, i32* %9, align 4
  %87 = sext i32 %86 to i64
  %88 = getelementptr inbounds [101 x i8], [101 x i8]* %4, i64 0, i64 %87
  %89 = load i8, i8* %88, align 1
  %90 = load i32, i32* %10, align 4
  %91 = sext i32 %90 to i64
  %92 = getelementptr inbounds [101 x i8], [101 x i8]* %5, i64 0, i64 %91
  store i8 %89, i8* %92, align 1
  br label %93

93:                                               ; preds = %85
  %94 = load i32, i32* %9, align 4
  %95 = add nsw i32 %94, 1
  store i32 %95, i32* %9, align 4
  %96 = load i32, i32* %10, align 4
  %97 = add nsw i32 %96, 1
  store i32 %97, i32* %10, align 4
  br label %81

98:                                               ; preds = %81
  %99 = load i32, i32* %7, align 4
  %100 = load i32, i32* %12, align 4
  %101 = add nsw i32 %99, %100
  %102 = sub nsw i32 %101, 1
  store i32 %102, i32* %7, align 4
  %103 = load i32, i32* %10, align 4
  %104 = add nsw i32 %103, -1
  store i32 %104, i32* %10, align 4
  br label %113

105:                                              ; preds = %76
  %106 = load i32, i32* %7, align 4
  %107 = sext i32 %106 to i64
  %108 = getelementptr inbounds [101 x i8], [101 x i8]* %2, i64 0, i64 %107
  %109 = load i8, i8* %108, align 1
  %110 = load i32, i32* %10, align 4
  %111 = sext i32 %110 to i64
  %112 = getelementptr inbounds [101 x i8], [101 x i8]* %5, i64 0, i64 %111
  store i8 %109, i8* %112, align 1
  br label %113

113:                                              ; preds = %105, %98
  br label %114

114:                                              ; preds = %113
  %115 = load i32, i32* %7, align 4
  %116 = add nsw i32 %115, 1
  store i32 %116, i32* %7, align 4
  %117 = load i32, i32* %10, align 4
  %118 = add nsw i32 %117, 1
  store i32 %118, i32* %10, align 4
  br label %31

119:                                              ; preds = %31
  %120 = load i32, i32* %11, align 4
  %121 = load i32, i32* %13, align 4
  %122 = add nsw i32 %120, %121
  %123 = load i32, i32* %12, align 4
  %124 = sub nsw i32 %122, %123
  %125 = sext i32 %124 to i64
  %126 = getelementptr inbounds [101 x i8], [101 x i8]* %5, i64 0, i64 %125
  store i8 0, i8* %126, align 1
  %127 = getelementptr inbounds [101 x i8], [101 x i8]* %5, i64 0, i64 0
  %128 = call i32 (i8*, ...) @printf(i8* getelementptr inbounds ([4 x i8], [4 x i8]* @.str, i64 0, i64 0), i8* %127)
  %129 = call i32 @getchar()
  %130 = call i32 @getchar()
  ret i32 0
}

declare dso_local i32 @gets(...) #1

; Function Attrs: nounwind readonly
declare dso_local i64 @strlen(i8*) #2

declare dso_local i32 @printf(i8*, ...) #1

declare dso_local i32 @getchar() #1


!llvm.module.flags = !{!0}
!llvm.ident = !{!1}

!0 = !{i32 1, !"wchar_size", i32 4}
!1 = !{!"clang version 10.0.0-4ubuntu1 "}
